; Function Attrs: mustprogress uwtable
define void @_ZNK6casadi10HorzRepsum10ad_reverseERKSt6vectorIS1_INS_2MXESaIS2_EESaIS4_EERS6_(ptr noundef nonnull readonly align 8 captures(none) dereferenceable(72) %0, ptr noundef nonnull readonly align 8 captures(none) dereferenceable(24) %1, ptr noundef nonnull readonly align 8 captures(none) dereferenceable(24) %2) unnamed_addr #3 align 2 personality ptr @__gxx_personality_v0 {
  %4 = alloca %"class.casadi::MX", align 8
  %5 = alloca %"class.casadi::MX", align 8
  %6 = getelementptr inbounds nuw i8, ptr %2, i64 8
  %7 = load ptr, ptr %6, align 8, !tbaa !66
  %8 = load ptr, ptr %2, align 8, !tbaa !69
  %.not = icmp eq ptr %7, %8
  br i1 %.not, label %._crit_edge, label %.lr.ph

.lr.ph:                                           ; preds = %3
  %9 = getelementptr inbounds nuw i8, ptr %0, i64 64
  br label %10

._crit_edge:                                      ; preds = %25, %3
  ret void

10:                                               ; preds = %.lr.ph, %25
  %.09 = phi i64 [ 0, %.lr.ph ], [ %26, %25 ]
  call void @llvm.lifetime.start.p0(i64 8, ptr nonnull %5) #21
  %11 = load ptr, ptr %1, align 8, !tbaa !69
  %12 = getelementptr inbounds nuw %"class.std::vector", ptr %11, i64 %.09
  %13 = load ptr, ptr %12, align 8, !tbaa !51
  %14 = call noundef ptr @_ZNK6casadi2MXptEv(ptr noundef nonnull align 8 dereferenceable(8) %13)
  %15 = load i64, ptr %9, align 8, !tbaa !113
  %16 = load ptr, ptr %14, align 8, !tbaa !3
  %17 = getelementptr inbounds nuw i8, ptr %16, i64 504
  %18 = load ptr, ptr %17, align 8
  call void %18(ptr dead_on_unwind nonnull writable sret(%"class.casadi::MX") align 8 %5, ptr noundef nonnull align 8 dereferenceable(64) %14, i64 noundef 1, i64 noundef %15)
  %19 = load ptr, ptr %2, align 8, !tbaa !69
  %20 = getelementptr inbounds nuw %"class.std::vector", ptr %19, i64 %.09
  %21 = load ptr, ptr %20, align 8, !tbaa !51
  call void @llvm.lifetime.start.p0(i64 8, ptr nonnull %4) #21
  invoke void @_ZN6casadi2MX6binaryExRKS0_S2_(ptr dead_on_unwind nonnull writable sret(%"class.casadi::MX") align 8 %4, i64 noundef 1, ptr noundef nonnull align 8 dereferenceable(8) %21, ptr noundef nonnull align 8 dereferenceable(8) %5)
          to label %.noexc unwind label %34

.noexc:                                           ; preds = %10
  %22 = invoke noundef nonnull align 8 dereferenceable(8) ptr @_ZN6casadi13GenericSharedINS_12SharedObjectENS_20SharedObjectInternalEEaSERKS3_(ptr noundef nonnull align 8 dereferenceable(8) %21, ptr noundef nonnull align 8 dereferenceable(8) %4)
          to label %25 unwind label %23

23:                                               ; preds = %.noexc
  %24 = landingpad { ptr, i32 }
          cleanup
  call void @_ZN6casadi2MXD1Ev(ptr noundef nonnull align 8 dereferenceable(8) %4) #21
  call void @llvm.lifetime.end.p0(i64 8, ptr nonnull %4) #21
  br label %.body

25:                                               ; preds = %.noexc
  call void @_ZN6casadi2MXD1Ev(ptr noundef nonnull align 8 dereferenceable(8) %4) #21
  call void @llvm.lifetime.end.p0(i64 8, ptr nonnull %4) #21
  call void @_ZN6casadi2MXD1Ev(ptr noundef nonnull align 8 dereferenceable(8) %5) #21
  call void @llvm.lifetime.end.p0(i64 8, ptr nonnull %5) #21
  %26 = add nuw nsw i64 %.09, 1
  %27 = load ptr, ptr %6, align 8, !tbaa !66
  %28 = load ptr, ptr %2, align 8, !tbaa !69
  %29 = ptrtoint ptr %27 to i64
  %30 = ptrtoint ptr %28 to i64
  %31 = sub i64 %29, %30
  %32 = sdiv exact i64 %31, 24
  %33 = icmp ult i64 %26, %32
  br i1 %33, label %10, label %._crit_edge, !llvm.loop !147

34:                                               ; preds = %10
  %35 = landingpad { ptr, i32 }
          cleanup
  br label %.body

.body:                                            ; preds = %23, %34
  %eh.lpad-body = phi { ptr, i32 } [ %35, %34 ], [ %24, %23 ]
  call void @_ZN6casadi2MXD1Ev(ptr noundef nonnull align 8 dereferenceable(8) %5) #21
  call void @llvm.lifetime.end.p0(i64 8, ptr nonnull %5) #21
  resume { ptr, i32 } %eh.lpad-body
}